EXPORTS
    _ZN12FireParticle10DeactivateEv @1
    _ZN12FireParticle10setGravityEd @2
    _ZN12FireParticle11SetLifetimeEd @3
    _ZN12FireParticle11SetPositionEdd @4
    _ZN12FireParticle11SetVelocityEdd @5
    _ZN12FireParticle13IsDeactivatedEv @6
    _ZN12FireParticle15SetAccelerationEdd @7
    _ZN12FireParticle20setNumberOfParticlesEi @8
    _ZN12FireParticle4StopEv @9
    _ZN12FireParticle4drawEv @10
    _ZN12FireParticle5StartEv @11
    _ZN12FireParticle6UpdateEf @12
    _ZN12FireParticle8IsActiveEv @13
    _ZN12FireParticle8SetColorEiii @14
    _ZN12FireParticle8setColorEiii @15
    _ZN12FireParticle8setSpeedEd @16
    _ZN12FireParticle9SetActiveEb @17
    _ZN12FireParticle9nextFrameEf @18
    _ZN12FireParticle9setOriginEdd @19
    _ZN12FireParticleC1Eddddddd @20
    _ZN12FireParticleC2Eddddddd @21
    _ZN8Firework10setGravityEd @22
    _ZN8Firework20setNumberOfParticlesEi @23
    _ZN8Firework4StopEv @24
    _ZN8Firework5StartEv @25
    _ZN8Firework8setColorEiii @26
    _ZN8Firework8setSpeedEd @27
    _ZN8Firework9nextFrameEf @28
    _ZN8Firework9setOriginEdd @29
    _ZN8FireworkC1Ev @30
    _ZN8FireworkC2Ev @31
    _ZNKSt5ctypeIcE8do_widenEc @32
    _ZNSt6vectorIP12FireParticleSaIS1_EE17_M_default_appendEm @33
    __gcc_deregister_frame @34
    __gcc_register_frame @35
    main @36
